target datalayout = "e-m:e-p270:32:32-p271:32:32-p272:64:64-i64:64-i128:128-f80:128-n8:16:32:64-S128"
target triple = "x86_64-pc-linux-gnu"

@libctx = internal global ptr null, align 8
@.str.14 = private unnamed_addr constant [29 x i8] c"../openssl/test/sslapitest.c\00", align 1
@.str.157 = private unnamed_addr constant [67 x i8] c"create_ssl_objects(sctx, cctx, &serverssl, &clientssl, NULL, NULL)\00", align 1
@.str.158 = private unnamed_addr constant [60 x i8] c"create_ssl_connection(serverssl, clientssl, SSL_ERROR_NONE)\00", align 1
@new_called = internal global i32 0, align 4
@.str.215 = private unnamed_addr constant [11 x i8] c"new_called\00", align 1
@.str.223 = private unnamed_addr constant [2 x i8] c"1\00", align 1
@.str.260 = private unnamed_addr constant [113 x i8] c"create_ssl_ctx_pair(libctx, TLS_server_method(), TLS_client_method(), TLS1_VERSION, 0, &sctx, &cctx, NULL, NULL)\00", align 1
@.str.261 = private unnamed_addr constant [80 x i8] c"SSL_CTX_set_session_id_context(sctx, (void *)&sess_id_ctx, sizeof(sess_id_ctx))\00", align 1
@use_session_cb_cnt = internal global i32 0, align 4
@find_session_cb_cnt = internal global i32 0, align 4
@pskid = internal global ptr @.str.265, align 8
@srvid = internal global ptr null, align 8
@serverpsk = internal global ptr null, align 8
@clientpsk = internal global ptr null, align 8
@.str.262 = private unnamed_addr constant [10 x i8] c"clientpsk\00", align 1
@.str.263 = private unnamed_addr constant [20 x i8] c"find_session_cb_cnt\00", align 1
@.str.264 = private unnamed_addr constant [19 x i8] c"use_session_cb_cnt\00", align 1

; Function Attrs: nounwind uwtable
define internal i32 @test_psk_tickets() #0 {
  %1 = alloca ptr, align 8
  %2 = alloca ptr, align 8
  %3 = alloca ptr, align 8
  %4 = alloca ptr, align 8
  %5 = alloca i32, align 4
  %6 = alloca i32, align 4
  call void @llvm.lifetime.start.p0(i64 8, ptr %1) #9
  store ptr null, ptr %1, align 8, !tbaa !19
  call void @llvm.lifetime.start.p0(i64 8, ptr %2) #9
  store ptr null, ptr %2, align 8, !tbaa !19
  call void @llvm.lifetime.start.p0(i64 8, ptr %3) #9
  store ptr null, ptr %3, align 8, !tbaa !21
  call void @llvm.lifetime.start.p0(i64 8, ptr %4) #9
  store ptr null, ptr %4, align 8, !tbaa !21
  call void @llvm.lifetime.start.p0(i64 4, ptr %5) #9
  store i32 0, ptr %5, align 4, !tbaa !13
  call void @llvm.lifetime.start.p0(i64 4, ptr %6) #9
  store i32 1, ptr %6, align 4, !tbaa !13
  %7 = load ptr, ptr @libctx, align 8, !tbaa !4
  %8 = call ptr @TLS_server_method()
  %9 = call ptr @TLS_client_method()
  %10 = call i32 @create_ssl_ctx_pair(ptr noundef %7, ptr noundef %8, ptr noundef %9, i32 noundef 769, i32 noundef 0, ptr noundef %1, ptr noundef %2, ptr noundef null, ptr noundef null)
  %11 = icmp ne i32 %10, 0
  %12 = zext i1 %11 to i32
  %13 = call i32 @test_true(ptr noundef @.str.14, i32 noundef 2676, ptr noundef @.str.260, i32 noundef %12)
  %14 = icmp ne i32 %13, 0
  br i1 %14, label %15, label %22

15:                                               ; preds = %0
  %16 = load ptr, ptr %1, align 8, !tbaa !19
  %17 = call i32 @SSL_CTX_set_session_id_context(ptr noundef %16, ptr noundef %6, i32 noundef 4)
  %18 = icmp ne i32 %17, 0
  %19 = zext i1 %18 to i32
  %20 = call i32 @test_true(ptr noundef @.str.14, i32 noundef 2679, ptr noundef @.str.261, i32 noundef %19)
  %21 = icmp ne i32 %20, 0
  br i1 %21, label %23, label %22

22:                                               ; preds = %15, %0
  br label %69

23:                                               ; preds = %15
  %24 = load ptr, ptr %2, align 8, !tbaa !19
  %25 = call i64 @SSL_CTX_ctrl(ptr noundef %24, i32 noundef 44, i64 noundef 513, ptr noundef null)
  %26 = load ptr, ptr %2, align 8, !tbaa !19
  call void @SSL_CTX_set_psk_use_session_callback(ptr noundef %26, ptr noundef @use_session_cb)
  %27 = load ptr, ptr %1, align 8, !tbaa !19
  call void @SSL_CTX_set_psk_find_session_callback(ptr noundef %27, ptr noundef @find_session_cb)
  %28 = load ptr, ptr %2, align 8, !tbaa !19
  call void @SSL_CTX_sess_set_new_cb(ptr noundef %28, ptr noundef @new_session_cb)
  store i32 0, ptr @use_session_cb_cnt, align 4, !tbaa !13
  store i32 0, ptr @find_session_cb_cnt, align 4, !tbaa !13
  %29 = load ptr, ptr @pskid, align 8, !tbaa !11
  store ptr %29, ptr @srvid, align 8, !tbaa !11
  store i32 0, ptr @new_called, align 4, !tbaa !13
  %30 = load ptr, ptr %1, align 8, !tbaa !19
  %31 = load ptr, ptr %2, align 8, !tbaa !19
  %32 = call i32 @create_ssl_objects(ptr noundef %30, ptr noundef %31, ptr noundef %3, ptr noundef %4, ptr noundef null, ptr noundef null)
  %33 = icmp ne i32 %32, 0
  %34 = zext i1 %33 to i32
  %35 = call i32 @test_true(ptr noundef @.str.14, i32 noundef 2693, ptr noundef @.str.157, i32 noundef %34)
  %36 = icmp ne i32 %35, 0
  br i1 %36, label %38, label %37

37:                                               ; preds = %23
  br label %69

38:                                               ; preds = %23
  %39 = load ptr, ptr %4, align 8, !tbaa !21
  %40 = call ptr @create_a_psk(ptr noundef %39, i64 noundef 48)
  store ptr %40, ptr @serverpsk, align 8, !tbaa !33
  store ptr %40, ptr @clientpsk, align 8, !tbaa !33
  %41 = load ptr, ptr @clientpsk, align 8, !tbaa !33
  %42 = call i32 @test_ptr(ptr noundef @.str.14, i32 noundef 2696, ptr noundef @.str.262, ptr noundef %41)
  %43 = icmp ne i32 %42, 0
  br i1 %43, label %45, label %44

44:                                               ; preds = %38
  br label %69

45:                                               ; preds = %38
  %46 = load ptr, ptr @clientpsk, align 8, !tbaa !33
  %47 = call i32 @SSL_SESSION_up_ref(ptr noundef %46)
  %48 = load ptr, ptr %3, align 8, !tbaa !21
  %49 = load ptr, ptr %4, align 8, !tbaa !21
  %50 = call i32 @create_ssl_connection(ptr noundef %48, ptr noundef %49, i32 noundef 0)
  %51 = icmp ne i32 %50, 0
  %52 = zext i1 %51 to i32
  %53 = call i32 @test_true(ptr noundef @.str.14, i32 noundef 2701, ptr noundef @.str.158, i32 noundef %52)
  %54 = icmp ne i32 %53, 0
  br i1 %54, label %55, label %67

55:                                               ; preds = %45
  %56 = load i32, ptr @find_session_cb_cnt, align 4, !tbaa !13
  %57 = call i32 @test_int_eq(ptr noundef @.str.14, i32 noundef 2702, ptr noundef @.str.223, ptr noundef @.str.263, i32 noundef 1, i32 noundef %56)
  %58 = icmp ne i32 %57, 0
  br i1 %58, label %59, label %67

59:                                               ; preds = %55
  %60 = load i32, ptr @use_session_cb_cnt, align 4, !tbaa !13
  %61 = call i32 @test_int_eq(ptr noundef @.str.14, i32 noundef 2703, ptr noundef @.str.223, ptr noundef @.str.264, i32 noundef 1, i32 noundef %60)
  %62 = icmp ne i32 %61, 0
  br i1 %62, label %63, label %67

63:                                               ; preds = %59
  %64 = load i32, ptr @new_called, align 4, !tbaa !13
  %65 = call i32 @test_int_eq(ptr noundef @.str.14, i32 noundef 2705, ptr noundef @.str.223, ptr noundef @.str.215, i32 noundef 1, i32 noundef %64)
  %66 = icmp ne i32 %65, 0
  br i1 %66, label %68, label %67

67:                                               ; preds = %63, %59, %55, %45
  br label %69

68:                                               ; preds = %63
  store i32 1, ptr %5, align 4, !tbaa !13
  br label %69

69:                                               ; preds = %68, %67, %44, %37, %22
  %70 = load ptr, ptr %3, align 8, !tbaa !21
  call void @SSL_free(ptr noundef %70)
  %71 = load ptr, ptr %4, align 8, !tbaa !21
  call void @SSL_free(ptr noundef %71)
  %72 = load ptr, ptr %1, align 8, !tbaa !19
  call void @SSL_CTX_free(ptr noundef %72)
  %73 = load ptr, ptr %2, align 8, !tbaa !19
  call void @SSL_CTX_free(ptr noundef %73)
  %74 = load ptr, ptr @clientpsk, align 8, !tbaa !33
  call void @SSL_SESSION_free(ptr noundef %74)
  %75 = load ptr, ptr @serverpsk, align 8, !tbaa !33
  call void @SSL_SESSION_free(ptr noundef %75)
  store ptr null, ptr @serverpsk, align 8, !tbaa !33
  store ptr null, ptr @clientpsk, align 8, !tbaa !33
  %76 = load i32, ptr %5, align 4, !tbaa !13
  call void @llvm.lifetime.end.p0(i64 4, ptr %6) #9
  call void @llvm.lifetime.end.p0(i64 4, ptr %5) #9
  call void @llvm.lifetime.end.p0(i64 8, ptr %4) #9
  call void @llvm.lifetime.end.p0(i64 8, ptr %3) #9
  call void @llvm.lifetime.end.p0(i64 8, ptr %2) #9
  call void @llvm.lifetime.end.p0(i64 8, ptr %1) #9
  ret i32 %76
}