; Function Attrs: nounwind uwtable
define internal range(i32 0, 2) i32 @test_psk_tickets() #1 {
  %1 = alloca ptr, align 8
  %2 = alloca ptr, align 8
  %3 = alloca ptr, align 8
  %4 = alloca ptr, align 8
  %5 = alloca i32, align 4
  call void @llvm.lifetime.start.p0(i64 8, ptr nonnull %1) #24
  store ptr null, ptr %1, align 8, !tbaa !19
  call void @llvm.lifetime.start.p0(i64 8, ptr nonnull %2) #24
  store ptr null, ptr %2, align 8, !tbaa !19
  call void @llvm.lifetime.start.p0(i64 8, ptr nonnull %3) #24
  store ptr null, ptr %3, align 8, !tbaa !21
  call void @llvm.lifetime.start.p0(i64 8, ptr nonnull %4) #24
  store ptr null, ptr %4, align 8, !tbaa !21
  call void @llvm.lifetime.start.p0(i64 4, ptr nonnull %5) #24
  store i32 1, ptr %5, align 4, !tbaa !14
  %6 = load ptr, ptr @libctx, align 8, !tbaa !4
  %7 = tail call ptr @TLS_server_method() #24
  %8 = tail call ptr @TLS_client_method() #24
  %9 = call i32 @create_ssl_ctx_pair(ptr noundef %6, ptr noundef %7, ptr noundef %8, i32 noundef 769, i32 noundef 0, ptr noundef nonnull %1, ptr noundef nonnull %2, ptr noundef null, ptr noundef null) #24
  %10 = icmp ne i32 %9, 0
  %11 = zext i1 %10 to i32
  %12 = call i32 @test_true(ptr noundef nonnull @.str.14, i32 noundef 2676, ptr noundef nonnull @.str.260, i32 noundef %11) #24
  %.not = icmp eq i32 %12, 0
  br i1 %.not, label %53, label %13

13:                                               ; preds = %0
  %14 = load ptr, ptr %1, align 8, !tbaa !19
  %15 = call i32 @SSL_CTX_set_session_id_context(ptr noundef %14, ptr noundef nonnull %5, i32 noundef 4) #24
  %16 = icmp ne i32 %15, 0
  %17 = zext i1 %16 to i32
  %18 = call i32 @test_true(ptr noundef nonnull @.str.14, i32 noundef 2679, ptr noundef nonnull @.str.261, i32 noundef %17) #24
  %.not1 = icmp eq i32 %18, 0
  br i1 %.not1, label %53, label %19

19:                                               ; preds = %13
  %20 = load ptr, ptr %2, align 8, !tbaa !19
  %21 = call i64 @SSL_CTX_ctrl(ptr noundef %20, i32 noundef 44, i64 noundef 513, ptr noundef null) #24
  %22 = load ptr, ptr %2, align 8, !tbaa !19
  call void @SSL_CTX_set_psk_use_session_callback(ptr noundef %22, ptr noundef nonnull @use_session_cb) #24
  %23 = load ptr, ptr %1, align 8, !tbaa !19
  call void @SSL_CTX_set_psk_find_session_callback(ptr noundef %23, ptr noundef nonnull @find_session_cb) #24
  %24 = load ptr, ptr %2, align 8, !tbaa !19
  call void @SSL_CTX_sess_set_new_cb(ptr noundef %24, ptr noundef nonnull @new_session_cb) #24
  store i32 0, ptr @use_session_cb_cnt, align 4, !tbaa !14
  store i32 0, ptr @find_session_cb_cnt, align 4, !tbaa !14
  store ptr @.str.265, ptr @srvid, align 8, !tbaa !11
  store i32 0, ptr @new_called, align 4, !tbaa !14
  %25 = load ptr, ptr %1, align 8, !tbaa !19
  %26 = load ptr, ptr %2, align 8, !tbaa !19
  %27 = call i32 @create_ssl_objects(ptr noundef %25, ptr noundef %26, ptr noundef nonnull %3, ptr noundef nonnull %4, ptr noundef null, ptr noundef null) #24
  %28 = icmp ne i32 %27, 0
  %29 = zext i1 %28 to i32
  %30 = call i32 @test_true(ptr noundef nonnull @.str.14, i32 noundef 2693, ptr noundef nonnull @.str.157, i32 noundef %29) #24
  %.not2 = icmp eq i32 %30, 0
  br i1 %.not2, label %53, label %31

31:                                               ; preds = %19
  %32 = load ptr, ptr %4, align 8, !tbaa !21
  %33 = call ptr @create_a_psk(ptr noundef %32, i64 noundef 48) #24
  store ptr %33, ptr @serverpsk, align 8, !tbaa !25
  store ptr %33, ptr @clientpsk, align 8, !tbaa !25
  %34 = call i32 @test_ptr(ptr noundef nonnull @.str.14, i32 noundef 2696, ptr noundef nonnull @.str.262, ptr noundef %33) #24
  %.not3 = icmp eq i32 %34, 0
  br i1 %.not3, label %53, label %35

35:                                               ; preds = %31
  %36 = load ptr, ptr @clientpsk, align 8, !tbaa !25
  %37 = call i32 @SSL_SESSION_up_ref(ptr noundef %36) #24
  %38 = load ptr, ptr %3, align 8, !tbaa !21
  %39 = load ptr, ptr %4, align 8, !tbaa !21
  %40 = call i32 @create_ssl_connection(ptr noundef %38, ptr noundef %39, i32 noundef 0) #24
  %41 = icmp ne i32 %40, 0
  %42 = zext i1 %41 to i32
  %43 = call i32 @test_true(ptr noundef nonnull @.str.14, i32 noundef 2701, ptr noundef nonnull @.str.158, i32 noundef %42) #24
  %.not4 = icmp eq i32 %43, 0
  br i1 %.not4, label %53, label %44

44:                                               ; preds = %35
  %45 = load i32, ptr @find_session_cb_cnt, align 4, !tbaa !14
  %46 = call i32 @test_int_eq(ptr noundef nonnull @.str.14, i32 noundef 2702, ptr noundef nonnull @.str.223, ptr noundef nonnull @.str.263, i32 noundef 1, i32 noundef %45) #24
  %.not5 = icmp eq i32 %46, 0
  br i1 %.not5, label %53, label %47

47:                                               ; preds = %44
  %48 = load i32, ptr @use_session_cb_cnt, align 4, !tbaa !14
  %49 = call i32 @test_int_eq(ptr noundef nonnull @.str.14, i32 noundef 2703, ptr noundef nonnull @.str.223, ptr noundef nonnull @.str.264, i32 noundef 1, i32 noundef %48) #24
  %.not6 = icmp eq i32 %49, 0
  br i1 %.not6, label %53, label %50

50:                                               ; preds = %47
  %51 = load i32, ptr @new_called, align 4, !tbaa !14
  %52 = call i32 @test_int_eq(ptr noundef nonnull @.str.14, i32 noundef 2705, ptr noundef nonnull @.str.223, ptr noundef nonnull @.str.215, i32 noundef 1, i32 noundef %51) #24
  %.not7 = icmp ne i32 %52, 0
  %spec.select = zext i1 %.not7 to i32
  br label %53

53:                                               ; preds = %50, %35, %44, %47, %31, %19, %0, %13
  %.0 = phi i32 [ 0, %47 ], [ 0, %44 ], [ 0, %35 ], [ 0, %31 ], [ 0, %19 ], [ 0, %13 ], [ 0, %0 ], [ %spec.select, %50 ]
  %54 = load ptr, ptr %3, align 8, !tbaa !21
  call void @SSL_free(ptr noundef %54) #24
  %55 = load ptr, ptr %4, align 8, !tbaa !21
  call void @SSL_free(ptr noundef %55) #24
  %56 = load ptr, ptr %1, align 8, !tbaa !19
  call void @SSL_CTX_free(ptr noundef %56) #24
  %57 = load ptr, ptr %2, align 8, !tbaa !19
  call void @SSL_CTX_free(ptr noundef %57) #24
  %58 = load ptr, ptr @clientpsk, align 8, !tbaa !25
  call void @SSL_SESSION_free(ptr noundef %58) #24
  %59 = load ptr, ptr @serverpsk, align 8, !tbaa !25
  call void @SSL_SESSION_free(ptr noundef %59) #24
  store ptr null, ptr @serverpsk, align 8, !tbaa !25
  store ptr null, ptr @clientpsk, align 8, !tbaa !25
  call void @llvm.lifetime.end.p0(i64 4, ptr nonnull %5) #24
  call void @llvm.lifetime.end.p0(i64 8, ptr nonnull %4) #24
  call void @llvm.lifetime.end.p0(i64 8, ptr nonnull %3) #24
  call void @llvm.lifetime.end.p0(i64 8, ptr nonnull %2) #24
  call void @llvm.lifetime.end.p0(i64 8, ptr nonnull %1) #24
  ret i32 %.0
}